target datalayout = "e-m:e-p270:32:32-p271:32:32-p272:64:64-i64:64-i128:128-f80:128-n8:16:32:64-S128"
target triple = "x86_64-pc-linux-gnu"

%struct.dict = type { ptr, [2 x ptr], [2 x i64], i64, i16, [2 x i8], i16, [0 x ptr] }
%struct.redisObject = type { i32, i32, ptr }

@hashExpireBucketsType = dso_local global { ptr, ptr, i32, [4 x i8] } { ptr @hashGetExpireMeta, ptr null, i32 0, [4 x i8] zeroinitializer }, align 8

; Function Attrs: inlinehint nounwind uwtable
define internal i32 @isDictWithMetaHFE(ptr noundef %0) #7 {
  %2 = alloca ptr, align 8
  store ptr %0, ptr %2, align 8, !tbaa !5
  %3 = load ptr, ptr %2, align 8, !tbaa !5
  %4 = getelementptr inbounds nuw %struct.dict, ptr %3, i32 0, i32 0
  %5 = load ptr, ptr %4, align 8, !tbaa !128
  %6 = icmp eq ptr %5, @mstrHashDictTypeWithHFE
  %7 = zext i1 %6 to i32
  ret i32 %7
}

; Function Attrs: nounwind uwtable
define dso_local i64 @hashTypeRemoveFromExpires(ptr noundef %0, ptr noundef %1) #1 {
  %3 = alloca i64, align 8
  %4 = alloca ptr, align 8
  %5 = alloca ptr, align 8
  %6 = alloca i64, align 8
  store ptr %0, ptr %4, align 8, !tbaa !10
  store ptr %1, ptr %5, align 8, !tbaa !15
  %7 = load ptr, ptr %5, align 8, !tbaa !15
  %8 = load i32, ptr %7, align 8
  %9 = lshr i32 %8, 4
  %10 = and i32 %9, 15
  %11 = icmp eq i32 %10, 11
  br i1 %11, label %12, label %13

12:                                               ; preds = %2
  store i64 281474976710656, ptr %3, align 8
  br label %39

13:                                               ; preds = %2
  %14 = load ptr, ptr %5, align 8, !tbaa !15
  %15 = load i32, ptr %14, align 8
  %16 = lshr i32 %15, 4
  %17 = and i32 %16, 15
  %18 = icmp eq i32 %17, 2
  br i1 %18, label %19, label %27

19:                                               ; preds = %13
  %20 = load ptr, ptr %5, align 8, !tbaa !15
  %21 = getelementptr inbounds nuw %struct.redisObject, ptr %20, i32 0, i32 2
  %22 = load ptr, ptr %21, align 8, !tbaa !17
  %23 = call i32 @isDictWithMetaHFE(ptr noundef %22)
  %24 = icmp ne i32 %23, 0
  br i1 %24, label %26, label %25

25:                                               ; preds = %19
  store i64 281474976710656, ptr %3, align 8
  br label %39

26:                                               ; preds = %19
  br label %27

27:                                               ; preds = %26, %13
  br label %28

28:                                               ; preds = %27
  call void @llvm.lifetime.start.p0(i64 8, ptr %6) #12
  %29 = load ptr, ptr %5, align 8, !tbaa !15
  %30 = call i64 @ebGetExpireTime(ptr noundef @hashExpireBucketsType, ptr noundef %29)
  store i64 %30, ptr %6, align 8, !tbaa !31
  %31 = load i64, ptr %6, align 8, !tbaa !31
  %32 = icmp ne i64 %31, 281474976710656
  br i1 %32, label %33, label %37

33:                                               ; preds = %28
  %34 = load ptr, ptr %4, align 8, !tbaa !10
  %35 = load ptr, ptr %5, align 8, !tbaa !15
  %36 = call i32 @ebRemove(ptr noundef %34, ptr noundef @hashExpireBucketsType, ptr noundef %35)
  br label %37

37:                                               ; preds = %33, %28
  %38 = load i64, ptr %6, align 8, !tbaa !31
  store i64 %38, ptr %3, align 8
  call void @llvm.lifetime.end.p0(i64 8, ptr %6) #12
  br label %39

39:                                               ; preds = %37, %25, %12
  %40 = load i64, ptr %3, align 8
  ret i64 %40
}