; Function Attrs: nounwind uwtable
define dso_local i64 @hashTypeRemoveFromExpires(ptr noundef %0, ptr noundef %1) local_unnamed_addr #1 {
  %3 = load i32, ptr %1, align 8
  %4 = lshr i32 %3, 4
  %5 = and i32 %4, 15
  switch i32 %5, label %9 [
    i32 11, label %13
    i32 2, label %6
  ]

6:                                                ; preds = %2
  %7 = getelementptr inbounds nuw i8, ptr %1, i64 8
  %8 = load ptr, ptr %7, align 8, !tbaa !10
  %.val = load ptr, ptr %8, align 8, !tbaa !56
  %.not = icmp eq ptr %.val, @mstrHashDictTypeWithHFE
  br i1 %.not, label %9, label %13

9:                                                ; preds = %2, %6
  %10 = tail call i64 @ebGetExpireTime(ptr noundef nonnull @hashExpireBucketsType, ptr noundef nonnull %1) #16
  %.not9 = icmp eq i64 %10, 281474976710656
  br i1 %.not9, label %13, label %11

11:                                               ; preds = %9
  %12 = tail call i32 @ebRemove(ptr noundef %0, ptr noundef nonnull @hashExpireBucketsType, ptr noundef nonnull %1) #16
  br label %13

13:                                               ; preds = %9, %11, %6, %2
  %.0 = phi i64 [ 281474976710656, %2 ], [ 281474976710656, %6 ], [ %10, %11 ], [ 281474976710656, %9 ]
  ret i64 %.0
}